target datalayout = "e-m:e-p270:32:32-p271:32:32-p272:64:64-i64:64-i128:128-f80:128-n8:16:32:64-S128"
target triple = "x86_64-pc-linux-gnu"

%struct.fetch_negotiator = type { ptr, ptr, ptr, ptr, ptr, ptr }

; Function Attrs: nounwind uwtable
define internal i32 @rev_list_insert_ref(ptr noundef %0, ptr noundef %1) #0 {
  %3 = alloca ptr, align 8
  %4 = alloca ptr, align 8
  %5 = alloca ptr, align 8
  store ptr %0, ptr %3, align 8, !tbaa !49
  store ptr %1, ptr %4, align 8, !tbaa !108
  call void @llvm.lifetime.start.p0(i64 8, ptr %5) #11
  %6 = load ptr, ptr %4, align 8, !tbaa !108
  %7 = call ptr @deref_without_lazy_fetch(ptr noundef %6, i32 noundef 0)
  store ptr %7, ptr %5, align 8, !tbaa !120
  %8 = load ptr, ptr %5, align 8, !tbaa !120
  %9 = icmp ne ptr %8, null
  br i1 %9, label %10, label %16

10:                                               ; preds = %2
  %11 = load ptr, ptr %3, align 8, !tbaa !49
  %12 = getelementptr inbounds nuw %struct.fetch_negotiator, ptr %11, i32 0, i32 1
  %13 = load ptr, ptr %12, align 8, !tbaa !200
  %14 = load ptr, ptr %3, align 8, !tbaa !49
  %15 = load ptr, ptr %5, align 8, !tbaa !120
  call void %13(ptr noundef %14, ptr noundef %15)
  br label %16

16:                                               ; preds = %10, %2
  call void @llvm.lifetime.end.p0(i64 8, ptr %5) #11
  ret i32 0
}

; Function Attrs: nounwind uwtable
define internal i32 @rev_list_insert_ref_oid(ptr noundef %0, ptr noundef %1, ptr noundef %2, i32 noundef %3, ptr noundef %4) #0 {
  %6 = alloca ptr, align 8
  %7 = alloca ptr, align 8
  %8 = alloca ptr, align 8
  %9 = alloca i32, align 4
  %10 = alloca ptr, align 8
  store ptr %0, ptr %6, align 8, !tbaa !4
  store ptr %1, ptr %7, align 8, !tbaa !4
  store ptr %2, ptr %8, align 8, !tbaa !108
  store i32 %3, ptr %9, align 4, !tbaa !19
  store ptr %4, ptr %10, align 8, !tbaa !106
  %11 = load ptr, ptr %10, align 8, !tbaa !106
  %12 = load ptr, ptr %8, align 8, !tbaa !108
  %13 = call i32 @rev_list_insert_ref(ptr noundef %11, ptr noundef %12)
  ret i32 %13
}