; Function Attrs: nounwind uwtable
define internal noundef i32 @rev_list_insert_ref_oid(ptr readnone captures(none) %0, ptr readnone captures(none) %1, ptr noundef %2, i32 %3, ptr noundef %4) #0 {
  %6 = tail call fastcc ptr @deref_without_lazy_fetch(ptr noundef %2, i32 noundef 0)
  %.not.i = icmp eq ptr %6, null
  br i1 %.not.i, label %rev_list_insert_ref.exit, label %7

7:                                                ; preds = %5
  %8 = getelementptr inbounds nuw i8, ptr %4, i64 8
  %9 = load ptr, ptr %8, align 8, !tbaa !53
  tail call void %9(ptr noundef %4, ptr noundef nonnull %6) #20
  br label %rev_list_insert_ref.exit

rev_list_insert_ref.exit:                         ; preds = %5, %7
  ret i32 0
}